Certificate:
    Data:
        Version: 3 (0x2)
        Serial Number:
            23:b8:c4:44:4c:c7:ce:46:a5:9b:da:29:a9:4a:98:a9:44:cb:9b:4f
        Signature Algorithm: sha256WithRSAEncryption
        Issuer: CN = Test Root Certificate Authority, ST = CA, C = US, emailAddress = root@test.com, O = Test, OU = Test Department
        Validity
            Not Before: May 14 22:12:20 2020 GMT
            Not After : May 13 22:12:20 2025 GMT
        Subject: C = US, ST = CA, O = Test Client, OU = Subunit of Test Organization, CN = client.test.com, emailAddress = root@client.test.com
        Subject Public Key Info:
            Public Key Algorithm: rsaEncryption
                RSA Public-Key: (2048 bit)
                Modulus:
                    00:d5:66:c9:c9:ef:64:ad:0f:c7:fe:74:fb:e4:75:
                    b3:76:60:7f:bb:5e:38:e9:25:e4:70:8c:99:63:ad:
                    76:26:b8:06:65:f5:0e:b6:6f:22:66:b7:4b:7a:8c:
                    4f:3a:fb:0e:ac:c1:0e:6e:76:db:b5:95:83:d4:a2:
                    86:eb:78:63:c5:d3:47:97:d9:6e:0f:39:ee:cd:51:
                    b6:af:cd:01:2c:a0:c0:bb:58:eb:23:6a:aa:09:e3:
                    69:31:2e:83:49:88:42:71:7d:25:aa:f1:63:5e:93:
                    a5:44:19:47:b2:3b:1c:7a:f1:f2:24:75:51:6f:13:
                    7e:9a:24:2c:42:e3:23:31:b6:dd:fa:50:36:92:ef:
                    c3:c2:40:fe:45:b9:80:79:d9:64:62:02:f4:de:8c:
                    58:fa:74:b9:fa:65:08:8f:46:79:a8:c6:69:df:88:
                    ee:18:d8:4d:90:a6:30:4f:3d:b7:78:56:1e:a7:24:
                    20:48:3b:e5:ab:e7:8e:41:6e:9f:f1:3d:34:f6:1a:
                    a3:ef:ad:3f:87:00:b9:88:0f:bf:ce:c4:4e:4a:fc:
                    1e:90:43:40:b1:df:86:cc:dd:1e:35:4f:95:9c:28:
                    65:e4:5e:ba:0d:0b:3f:c7:5f:28:b3:4a:be:d2:d7:
                    4f:38:da:f0:3d:68:3c:40:e7:db:fd:7a:79:89:4c:
                    43:d1
                Exponent: 65537 (0x10001)
        X509v3 extensions:
            X509v3 Subject Alternative Name:
                DNS:client.test.com, DNS:alt.client.test.com
    Signature Algorithm: sha256WithRSAEncryption
         42:01:84:10:d4:85:3f:fd:e2:57:fc:61:c7:21:9b:af:18:9f:
         ab:66:ae:55:ad:ba:3b:2c:42:14:e7:a4:f1:fe:e9:8e:7e:80:
         bd:3d:5b:7d:04:88:28:47:e0:70:87:4d:ab:08:76:6c:97:fb:
         ec:b1:58:db:0e:82:d9:9c:1b:b1:b6:46:9e:58:84:5d:e1:4c:
         d4:2e:5f:b5:78:9c:0d:43:f9:a3:88:a3:e6:c8:c0:8b:9e:29:
         45:50:00:3f:56:d9:34:5e:e0:a9:29:be:60:dd:73:67:62:0a:
         ca:18:af:5b:cc:7d:c1:c3:9f:8f:51:0b:e8:f3:f6:6a:84:94:
         bf:fd:dd:f4:c6:17:94:85:80:68:53:b7:15:21:c4:04:b2:19:
         8b:11:a8:69:bd:1d:47:81:b8:b7:5a:51:85:c0:64:5b:74:7d:
         bb:d5:7d:14:66:ed:81:5c:7f:64:92:c8:ea:1c:8f:ed:2a:6d:
         66:0f:00:17:ee:2b:7e:f8:40:7c:5e:fb:9c:ed:b4:f8:b4:43:
         23:9c:07:35:da:04:6c:f2:1e:5f:22:6c:25:48:d3:c7:a1:b0:
         a9:68:5e:48:c1:32:41:10:7f:93:7c:cc:00:9e:d4:23:bb:31:
         41:52:ac:06:fc:8f:c2:4d:bc:0c:12:15:b0:bd:c5:34:2e:85:
         e2:66:4b:e5
-----BEGIN CERTIFICATE-----
MIID5DCCAsygAwIBAgIUI7jEREzHzkalm9opqUqYqUTLm08wDQYJKoZIhvcNAQEL
BQAwgYsxKDAmBgNVBAMMH1Rlc3QgUm9vdCBDZXJ0aWZpY2F0ZSBBdXRob3JpdHkx
CzAJBgNVBAgMAkNBMQswCQYDVQQGEwJVUzEcMBoGCSqGSIb3DQEJARYNcm9vdEB0
ZXN0LmNvbTENMAsGA1UECgwEVGVzdDEYMBYGA1UECwwPVGVzdCBEZXBhcnRtZW50
MB4XDTIwMDUxNDIyMTIyMFoXDTI1MDUxMzIyMTIyMFowgZYxCzAJBgNVBAYTAlVT
MQswCQYDVQQIDAJDQTEUMBIGA1UECgwLVGVzdCBDbGllbnQxJTAjBgNVBAsMHFN1
YnVuaXQgb2YgVGVzdCBPcmdhbml6YXRpb24xGDAWBgNVBAMMD2NsaWVudC50ZXN0
LmNvbTEjMCEGCSqGSIb3DQEJARYUcm9vdEBjbGllbnQudGVzdC5jb20wggEiMA0G
CSqGSIb3DQEBAQUAA4IBDwAwggEKAoIBAQDVZsnJ72StD8f+dPvkdbN2YH+7Xjjp
JeRwjJljrXYmuAZl9Q62byJmt0t6jE86+w6swQ5udtu1lYPUoobreGPF00eX2W4P
Oe7NUbavzQEsoMC7WOsjaqoJ42kxLoNJiEJxfSWq8WNek6VEGUeyOxx68fIkdVFv
E36aJCxC4yMxtt36UDaS78PCQP5FuYB52WRiAvTejFj6dLn6ZQiPRnmoxmnfiO4Y
2E2QpjBPPbd4Vh6nJCBIO+Wr545Bbp/xPTT2GqPvrT+HALmID7/OxE5K/B6QQ0Cx
34bM3R41T5WcKGXkXroNCz/HXyizSr7S10842vA9aDxA59v9enmJTEPRAgMBAAGj
MzAxMC8GA1UdEQQoMCaCD2NsaWVudC50ZXN0LmNvbYITYWx0LmNsaWVudC50ZXN0
LmNvbTANBgkqhkiG9w0BAQsFAAOCAQEAQgGEENSFP/3iV/xhxyGbrxifq2auVa26
OyxCFOek8f7pjn6AvT1bfQSIKEfgcIdNqwh2bJf77LFY2w6C2ZwbsbZGnliEXeFM
1C5ftXicDUP5o4ij5sjAi54pRVAAP1bZNF7gqSm+YN1zZ2IKyhivW8x9wcOfj1EL
6PP2aoSUv/3d9MYXlIWAaFO3FSHEBLIZixGoab0dR4G4t1pRhcBkW3R9u9V9FGbt
gVx/ZJLI6hyP7SptZg8AF+4rfvhAfF77nO20+LRDI5wHNdoEbPIeXyJsJUjTx6Gw
qWheSMEyQRB/k3zMAJ7UI7sxQVKsBvyPwk28DBIVsL3FNC6F4mZL5Q==
-----END CERTIFICATE-----
