Certificate:
    Data:
        Version: 3 (0x2)
        Serial Number: 2 (0x2)
    Signature Algorithm: sha1WithRSAEncryption
        Issuer: CN=Test Root Certificate Authority, ST=CA, C=US/emailAddress=root@test.com, O=Test, OU=Test Department
        Validity
            Not Before: Jan  7 19:26:14 2019 GMT
            Not After : Jan  6 19:26:14 2024 GMT
        Subject: CN=client.test.com, ST=CA, C=US/emailAddress=root@client.test.com, O=Test Client, OU=Subunit of Test Organization
        Subject Public Key Info:
            Public Key Algorithm: rsaEncryption
                Public-Key: (1024 bit)
                Modulus:
                    00:a6:a4:24:19:14:9e:96:0a:3e:b8:14:7b:e9:04:
                    ca:a0:ef:61:1a:e6:63:84:51:34:10:58:9e:f2:6f:
                    9d:27:64:e5:a9:32:02:e2:fb:f0:c5:47:d0:b2:8f:
                    f4:19:71:2a:de:f8:de:ae:cb:0b:41:cf:cc:76:63:
                    9b:4a:9b:12:50:5f:b9:b4:fc:e3:fd:05:85:7f:a7:
                    1c:ad:ec:d1:40:70:fa:4c:51:88:a3:d4:e5:49:b2:
                    72:7c:2e:4d:c5:00:ae:40:96:15:84:34:5f:99:75:
                    7b:6a:00:d3:ec:a0:7d:82:d3:71:a3:79:cc:d4:4c:
                    3b:50:49:d0:9b:27:e4:0b:cb
                Exponent: 65537 (0x10001)
        X509v3 extensions:
            X509v3 Basic Constraints:
                CA:FALSE
            X509v3 Key Usage:
                Digital Signature, Non Repudiation, Key Encipherment
            X509v3 Subject Alternative Name:
                DNS:client.test.com, DNS:alt.client.test.com
    Signature Algorithm: sha1WithRSAEncryption
         4f:11:ff:ed:05:e2:80:75:bd:e0:b3:f3:21:34:65:50:67:ff:
         3c:45:88:58:58:77:9a:6e:f6:1e:74:f9:cb:02:e1:31:e0:52:
         d9:f9:63:e5:fb:01:d2:83:df:20:c1:77:a7:15:da:18:3a:e0:
         ea:e0:66:ab:41:21:9e:36:9c:36:28:1c:cb:20:43:94:94:e8:
         9b:0d:3d:2a:ac:20:48:5b:b8:c0:45:0d:5c:30:91:be:ba:67:
         b9:f6:bd:64:08:ab:af:35:a1:db:dd:54:e8:32:c9:3a:95:34:
         26:8f:a1:1b:a1:a2:32:47:a0:e0:a4:11:06:dc:d2:67:87:1a:
         51:50:bc:09:26:e3:1c:e7:83:a5:69:48:92:6c:87:94:46:f6:
         b2:45:55:6f:5e:f2:6b:c8:9d:65:61:31:83:09:71:60:71:d5:
         9c:44:65:27:f6:3f:fd:fb:40:30:47:02:b1:6f:5a:ff:7a:c5:
         83:e0:80:52:53:a7:2c:24:71:51:81:df:3f:2f:1d:42:df:bc:
         86:b4:0c:18:64:8d:33:a7:c0:e8:f2:9e:f5:0b:92:c4:4d:f7:
         4b:2f:13:8d:81:25:f3:47:f5:72:71:c2:62:3d:36:09:3c:ec:
         d1:15:6d:15:77:28:c6:de:f9:73:5d:5b:a0:a4:0f:f2:50:a0:
         00:20:87:fa
-----BEGIN CERTIFICATE-----
MIIDZTCCAk2gAwIBAgIBAjANBgkqhkiG9w0BAQUFADCBizEoMCYGA1UEAwwfVGVz
dCBSb290IENlcnRpZmljYXRlIEF1dGhvcml0eTELMAkGA1UECAwCQ0ExCzAJBgNV
BAYTAlVTMRwwGgYJKoZIhvcNAQkBFg1yb290QHRlc3QuY29tMQ0wCwYDVQQKDARU
ZXN0MRgwFgYDVQQLDA9UZXN0IERlcGFydG1lbnQwHhcNMTkwMTA3MTkyNjE0WhcN
MjQwMTA2MTkyNjE0WjCBljEYMBYGA1UEAwwPY2xpZW50LnRlc3QuY29tMQswCQYD
VQQIDAJDQTELMAkGA1UEBhMCVVMxIzAhBgkqhkiG9w0BCQEWFHJvb3RAY2xpZW50
LnRlc3QuY29tMRQwEgYDVQQKDAtUZXN0IENsaWVudDElMCMGA1UECwwcU3VidW5p
dCBvZiBUZXN0IE9yZ2FuaXphdGlvbjCBnzANBgkqhkiG9w0BAQEFAAOBjQAwgYkC
gYEApqQkGRSelgo+uBR76QTKoO9hGuZjhFE0EFie8m+dJ2TlqTIC4vvwxUfQso/0
GXEq3vjerssLQc/MdmObSpsSUF+5tPzj/QWFf6ccrezRQHD6TFGIo9TlSbJyfC5N
xQCuQJYVhDRfmXV7agDT7KB9gtNxo3nM1Ew7UEnQmyfkC8sCAwEAAaNLMEkwCQYD
VR0TBAIwADALBgNVHQ8EBAMCBeAwLwYDVR0RBCgwJoIPY2xpZW50LnRlc3QuY29t
ghNhbHQuY2xpZW50LnRlc3QuY29tMA0GCSqGSIb3DQEBBQUAA4IBAQBPEf/tBeKA
db3gs/MhNGVQZ/88RYhYWHeabvYedPnLAuEx4FLZ+WPl+wHSg98gwXenFdoYOuDq
4GarQSGeNpw2KBzLIEOUlOibDT0qrCBIW7jARQ1cMJG+ume59r1kCKuvNaHb3VTo
Msk6lTQmj6EboaIyR6DgpBEG3NJnhxpRULwJJuMc54OlaUiSbIeURvayRVVvXvJr
yJ1lYTGDCXFgcdWcRGUn9j/9+0AwRwKxb1r/esWD4IBSU6csJHFRgd8/Lx1C37yG
tAwYZI0zp8Do8p71C5LETfdLLxONgSXzR/VyccJiPTYJPOzRFW0VdyjG3vlzXVug
pA/yUKAAIIf6
-----END CERTIFICATE-----
