Certificate:
    Data:
        Version: 3 (0x2)
        Serial Number:
            78:f7:9b:75:a7:9d:83:12:a5:c7:a0:b6:af:87:da:c3:d9:32:c2:d7
        Signature Algorithm: sha256WithRSAEncryption
        Issuer: CN = Test Root Certificate Authority, ST = CA, C = US, emailAddress = root@test.com, O = Test, OU = Test Department
        Validity
            Not Before: Oct 27 03:10:04 2020 GMT
            Not After : Jun 28 03:10:04 2520 GMT
        Subject: C = US, ST = CA, O = Test Client, OU = Subunit of Test Organization, CN = client.test.com, emailAddress = root@client.test.com
        Subject Public Key Info:
            Public Key Algorithm: rsaEncryption
                RSA Public-Key: (2048 bit)
                Modulus:
                    00:d5:66:c9:c9:ef:64:ad:0f:c7:fe:74:fb:e4:75:
                    b3:76:60:7f:bb:5e:38:e9:25:e4:70:8c:99:63:ad:
                    76:26:b8:06:65:f5:0e:b6:6f:22:66:b7:4b:7a:8c:
                    4f:3a:fb:0e:ac:c1:0e:6e:76:db:b5:95:83:d4:a2:
                    86:eb:78:63:c5:d3:47:97:d9:6e:0f:39:ee:cd:51:
                    b6:af:cd:01:2c:a0:c0:bb:58:eb:23:6a:aa:09:e3:
                    69:31:2e:83:49:88:42:71:7d:25:aa:f1:63:5e:93:
                    a5:44:19:47:b2:3b:1c:7a:f1:f2:24:75:51:6f:13:
                    7e:9a:24:2c:42:e3:23:31:b6:dd:fa:50:36:92:ef:
                    c3:c2:40:fe:45:b9:80:79:d9:64:62:02:f4:de:8c:
                    58:fa:74:b9:fa:65:08:8f:46:79:a8:c6:69:df:88:
                    ee:18:d8:4d:90:a6:30:4f:3d:b7:78:56:1e:a7:24:
                    20:48:3b:e5:ab:e7:8e:41:6e:9f:f1:3d:34:f6:1a:
                    a3:ef:ad:3f:87:00:b9:88:0f:bf:ce:c4:4e:4a:fc:
                    1e:90:43:40:b1:df:86:cc:dd:1e:35:4f:95:9c:28:
                    65:e4:5e:ba:0d:0b:3f:c7:5f:28:b3:4a:be:d2:d7:
                    4f:38:da:f0:3d:68:3c:40:e7:db:fd:7a:79:89:4c:
                    43:d1
                Exponent: 65537 (0x10001)
        X509v3 extensions:
            X509v3 Subject Alternative Name:
                DNS:client.test.com, DNS:alt.client.test.com
    Signature Algorithm: sha256WithRSAEncryption
         47:6a:90:28:93:f3:31:ad:8d:70:59:1b:1d:c2:9a:63:b1:40:
         64:39:a1:5d:22:25:c1:45:e0:0b:98:82:47:c9:0d:31:44:d7:
         6a:cc:38:8b:ee:67:f4:43:7a:63:7e:b7:84:64:23:de:98:eb:
         a3:5f:5a:ca:da:bc:37:16:76:dc:55:5b:eb:71:ef:f5:f9:f9:
         db:77:34:1c:8e:b5:fe:9a:00:9d:bf:9f:5a:1a:51:68:54:47:
         ef:0c:fb:cd:7f:08:81:01:bd:6e:6a:05:27:1d:66:38:75:7b:
         69:66:bf:8d:e7:e1:15:a6:5b:2d:1f:7a:c3:8a:af:14:88:da:
         ab:6f:87:8f:df:cd:b6:82:f0:5e:f4:aa:de:36:ab:a0:de:eb:
         dd:8b:dc:e7:58:ec:48:8a:27:3f:a2:97:69:aa:63:9e:74:5b:
         33:2d:1e:0a:17:02:7f:e3:97:10:75:3e:7d:77:48:a6:72:fb:
         5d:d7:68:78:1e:5c:ca:5a:8d:6f:48:f0:ea:92:e3:25:85:9f:
         7b:ec:fa:93:8e:ff:ef:bc:70:bd:77:5b:8e:38:cb:df:4e:5e:
         35:51:1b:ee:58:1d:cc:cb:bb:e0:85:1f:b6:84:c3:da:c0:1e:
         9b:71:88:02:c3:cc:8c:a1:77:0c:bb:e2:ea:05:d5:30:e6:9c:
         2d:d6:d2:e5
-----BEGIN CERTIFICATE-----
MIID5jCCAs6gAwIBAgIUePebdaedgxKlx6C2r4faw9kywtcwDQYJKoZIhvcNAQEL
BQAwgYsxKDAmBgNVBAMMH1Rlc3QgUm9vdCBDZXJ0aWZpY2F0ZSBBdXRob3JpdHkx
CzAJBgNVBAgMAkNBMQswCQYDVQQGEwJVUzEcMBoGCSqGSIb3DQEJARYNcm9vdEB0
ZXN0LmNvbTENMAsGA1UECgwEVGVzdDEYMBYGA1UECwwPVGVzdCBEZXBhcnRtZW50
MCAXDTIwMTAyNzAzMTAwNFoYDzI1MjAwNjI4MDMxMDA0WjCBljELMAkGA1UEBhMC
VVMxCzAJBgNVBAgMAkNBMRQwEgYDVQQKDAtUZXN0IENsaWVudDElMCMGA1UECwwc
U3VidW5pdCBvZiBUZXN0IE9yZ2FuaXphdGlvbjEYMBYGA1UEAwwPY2xpZW50LnRl
c3QuY29tMSMwIQYJKoZIhvcNAQkBFhRyb290QGNsaWVudC50ZXN0LmNvbTCCASIw
DQYJKoZIhvcNAQEBBQADggEPADCCAQoCggEBANVmycnvZK0Px/50++R1s3Zgf7te
OOkl5HCMmWOtdia4BmX1DrZvIma3S3qMTzr7DqzBDm5227WVg9Sihut4Y8XTR5fZ
bg857s1Rtq/NASygwLtY6yNqqgnjaTEug0mIQnF9JarxY16TpUQZR7I7HHrx8iR1
UW8TfpokLELjIzG23fpQNpLvw8JA/kW5gHnZZGIC9N6MWPp0ufplCI9GeajGad+I
7hjYTZCmME89t3hWHqckIEg75avnjkFun/E9NPYao++tP4cAuYgPv87ETkr8HpBD
QLHfhszdHjVPlZwoZeReug0LP8dfKLNKvtLXTzja8D1oPEDn2/16eYlMQ9ECAwEA
AaMzMDEwLwYDVR0RBCgwJoIPY2xpZW50LnRlc3QuY29tghNhbHQuY2xpZW50LnRl
c3QuY29tMA0GCSqGSIb3DQEBCwUAA4IBAQBHapAok/MxrY1wWRsdwppjsUBkOaFd
IiXBReALmIJHyQ0xRNdqzDiL7mf0Q3pjfreEZCPemOujX1rK2rw3FnbcVVvrce/1
+fnbdzQcjrX+mgCdv59aGlFoVEfvDPvNfwiBAb1uagUnHWY4dXtpZr+N5+EVplst
H3rDiq8UiNqrb4eP3822gvBe9KreNqug3uvdi9znWOxIiic/opdpqmOedFszLR4K
FwJ/45cQdT59d0imcvtd12h4HlzKWo1vSPDqkuMlhZ977PqTjv/vvHC9d1uOOMvf
Tl41URvuWB3My7vghR+2hMPawB6bcYgCw8yMoXcMu+LqBdUw5pwt1tLl
-----END CERTIFICATE-----
