Certificate:
    Data:
        Version: 3 (0x2)
        Serial Number:
            26:88:ed:aa:d6:ee:5b:97:9a:c0:a1:59:36:b3:d3:4d:0c:3b:de:82
        Signature Algorithm: sha256WithRSAEncryption
        Issuer: CN=Test Root Certificate Authority, ST=CA, C=US, emailAddress=root@test.com, O=Test, OU=Test Department
        Validity
            Not Before: Dec 24 07:15:42 2008 GMT
            Not After : Dec 23 07:15:42 2008 GMT
        Subject: C=US, ST=CA, O=Test Client, OU=Subunit of Test Organization, CN=client.test.com, emailAddress=root@client.test.com
        Subject Public Key Info:
            Public Key Algorithm: rsaEncryption
                Public-Key: (2048 bit)
                Modulus:
                    00:e1:d7:31:65:a2:71:5b:16:44:17:1d:41:1d:3f:
                    ed:86:65:fe:07:08:98:e3:a3:38:5a:b7:68:e7:de:
                    97:4c:02:54:6d:e5:6d:18:ff:7b:96:f8:06:3a:e9:
                    bf:f5:53:06:8f:ad:11:d4:03:14:1c:74:c3:a2:1a:
                    c3:16:7b:49:86:3a:1a:55:e5:88:6d:a6:09:81:99:
                    4a:d1:6a:43:bb:b0:bf:4d:da:0a:8d:72:47:96:58:
                    19:02:b4:f4:9c:b8:4a:70:63:48:74:51:c9:45:06:
                    91:50:b5:08:72:fc:95:b2:30:b2:21:67:6d:d6:e4:
                    7a:c8:07:b0:b3:bb:55:9b:70:bc:60:af:31:60:3b:
                    bf:c8:f2:c2:31:3d:06:bf:9a:b5:69:2a:28:ef:83:
                    3b:49:f4:14:c4:00:e0:0a:11:38:a8:12:e7:e7:d2:
                    1a:de:8c:84:a3:a2:b0:26:82:90:11:d3:11:d9:e3:
                    27:f6:5e:35:c0:1a:fb:06:48:44:11:ad:1d:ad:d1:
                    67:bf:11:ea:17:a5:57:8d:4c:4a:37:98:8c:ae:47:
                    ea:34:4c:e9:a5:08:6b:1f:ec:d2:fb:cc:55:93:81:
                    f7:24:c2:8d:24:8e:ad:d9:3c:50:e7:aa:b4:fb:70:
                    94:30:a3:93:2b:c7:9a:90:c3:42:31:30:c2:09:f4:
                    2e:e3
                Exponent: 65537 (0x10001)
        X509v3 extensions:
            X509v3 Subject Alternative Name:
                DNS:client.test.com, DNS:alt.client.test.com
            X509v3 Subject Key Identifier:
                91:09:E2:5E:93:DF:5C:F2:BA:06:06:63:96:5D:64:C1:6D:BB:14:B3
            X509v3 Authority Key Identifier:
                72:A9:84:47:1D:BE:73:D7:79:41:DD:38:A1:DD:B6:01:88:70:63:F0
    Signature Algorithm: sha256WithRSAEncryption
    Signature Value:
        39:9a:7d:30:58:cf:46:d9:29:56:d7:4c:f4:b5:22:6a:37:66:
        04:ef:08:72:69:2f:66:ff:3d:f2:5b:07:41:c3:92:c7:6b:50:
        dc:2b:75:15:0e:47:01:e0:d8:94:c5:38:55:38:25:7b:2f:79:
        06:aa:8c:37:d4:d8:2f:cd:b6:57:23:ba:bd:d3:6b:e3:6b:d4:
        2f:5a:65:43:1c:2c:60:0f:14:ba:f1:91:9a:f4:13:c9:04:a9:
        35:fa:e3:e7:79:64:42:4e:b6:8b:db:e0:4f:07:66:8d:8c:fa:
        44:37:1b:3f:c2:1f:33:ee:ef:3a:00:ed:70:78:05:38:d1:98:
        b6:de:bf:2d:d8:6b:26:9c:e8:81:a9:ea:76:b3:de:86:d7:af:
        81:9b:4d:d9:fd:d0:67:50:e8:3d:d9:9c:09:55:53:ce:b8:a1:
        d0:55:4b:3a:b2:c5:c1:75:75:b5:4c:03:54:d0:31:fa:b5:ad:
        e1:5c:f4:45:04:e0:68:3d:0a:ad:05:db:f1:38:02:6d:15:3b:
        a5:56:29:8e:e0:6c:14:f3:2b:27:c9:7e:53:51:d4:aa:4f:e9:
        e0:e8:2f:ab:3e:5f:a0:b2:2c:7c:ca:f4:7e:54:7d:1b:2c:cd:
        c2:a9:44:9a:9d:50:5d:0c:6f:32:d2:67:71:75:83:0f:c0:35:
        eb:0e:4e:bb
-----BEGIN CERTIFICATE-----
MIIEJDCCAwygAwIBAgIUJojtqtbuW5eawKFZNrPTTQw73oIwDQYJKoZIhvcNAQEL
BQAwgYsxKDAmBgNVBAMMH1Rlc3QgUm9vdCBDZXJ0aWZpY2F0ZSBBdXRob3JpdHkx
CzAJBgNVBAgMAkNBMQswCQYDVQQGEwJVUzEcMBoGCSqGSIb3DQEJARYNcm9vdEB0
ZXN0LmNvbTENMAsGA1UECgwEVGVzdDEYMBYGA1UECwwPVGVzdCBEZXBhcnRtZW50
MB4XDTA4MTIyNDA3MTU0MloXDTA4MTIyMzA3MTU0MlowgZYxCzAJBgNVBAYTAlVT
MQswCQYDVQQIDAJDQTEUMBIGA1UECgwLVGVzdCBDbGllbnQxJTAjBgNVBAsMHFN1
YnVuaXQgb2YgVGVzdCBPcmdhbml6YXRpb24xGDAWBgNVBAMMD2NsaWVudC50ZXN0
LmNvbTEjMCEGCSqGSIb3DQEJARYUcm9vdEBjbGllbnQudGVzdC5jb20wggEiMA0G
CSqGSIb3DQEBAQUAA4IBDwAwggEKAoIBAQDh1zFlonFbFkQXHUEdP+2GZf4HCJjj
ozhat2jn3pdMAlRt5W0Y/3uW+AY66b/1UwaPrRHUAxQcdMOiGsMWe0mGOhpV5Yht
pgmBmUrRakO7sL9N2gqNckeWWBkCtPScuEpwY0h0UclFBpFQtQhy/JWyMLIhZ23W
5HrIB7Czu1WbcLxgrzFgO7/I8sIxPQa/mrVpKijvgztJ9BTEAOAKETioEufn0hre
jISjorAmgpAR0xHZ4yf2XjXAGvsGSEQRrR2t0We/EeoXpVeNTEo3mIyuR+o0TOml
CGsf7NL7zFWTgfckwo0kjq3ZPFDnqrT7cJQwo5Mrx5qQw0IxMMIJ9C7jAgMBAAGj
czBxMC8GA1UdEQQoMCaCD2NsaWVudC50ZXN0LmNvbYITYWx0LmNsaWVudC50ZXN0
LmNvbTAdBgNVHQ4EFgQUkQniXpPfXPK6BgZjll1kwW27FLMwHwYDVR0jBBgwFoAU
cqmERx2+c9d5Qd04od22AYhwY/AwDQYJKoZIhvcNAQELBQADggEBADmafTBYz0bZ
KVbXTPS1Imo3ZgTvCHJpL2b/PfJbB0HDksdrUNwrdRUORwHg2JTFOFU4JXsveQaq
jDfU2C/Ntlcjur3Ta+Nr1C9aZUMcLGAPFLrxkZr0E8kEqTX64+d5ZEJOtovb4E8H
Zo2M+kQ3Gz/CHzPu7zoA7XB4BTjRmLbevy3Yayac6IGp6naz3obXr4GbTdn90GdQ
6D3ZnAlVU864odBVSzqyxcF1dbVMA1TQMfq1reFc9EUE4Gg9Cq0F2/E4Am0VO6VW
KY7gbBTzKyfJflNR1KpP6eDoL6s+X6CyLHzK9H5UfRsszcKpRJqdUF0MbzLSZ3F1
gw/ANesOTrs=
-----END CERTIFICATE-----
