Certificate:
    Data:
        Version: 3 (0x2)
        Serial Number: 1 (0x1)
    Signature Algorithm: sha1WithRSAEncryption
        Issuer: CN=Test Root Certificate Authority, ST=CA, C=US/emailAddress=root@test.com, O=Test, OU=Test Department
        Validity
            Not Before: Jan  7 18:25:01 2019 GMT
            Not After : Jan  6 18:25:01 2024 GMT
        Subject: CN=test.com, ST=CA, C=US/emailAddress=root@test.com, O=Test, OU=Subunit of Test Organization
        Subject Public Key Info:
            Public Key Algorithm: rsaEncryption
                Public-Key: (1024 bit)
                Modulus:
                    00:ca:76:35:79:91:e8:a2:ee:ef:f4:35:7e:29:85:
                    75:90:65:5a:60:f8:a0:d9:ef:68:d1:61:79:69:d7:
                    e2:7b:f1:67:71:65:50:31:4e:9a:f8:6f:27:e9:05:
                    0b:0e:76:95:24:9b:c2:bf:90:e5:6b:45:fd:e3:54:
                    ac:d5:62:90:4e:37:de:8f:ae:96:f6:b3:57:eb:ad:
                    b8:44:13:5d:a7:34:76:c1:26:49:91:67:3e:5e:52:
                    68:c1:1c:7f:91:c7:9e:01:e2:be:a7:a8:eb:3f:44:
                    6d:c7:c5:82:4b:97:d9:3f:c0:51:99:1b:20:df:12:
                    a3:e6:bb:66:45:6d:b4:e1:07
                Exponent: 65537 (0x10001)
        X509v3 extensions:
            X509v3 Basic Constraints:
                CA:FALSE
            X509v3 Key Usage:
                Digital Signature, Non Repudiation, Key Encipherment
            X509v3 Subject Alternative Name:
                DNS:test.com, DNS:alt.test.com
    Signature Algorithm: sha1WithRSAEncryption
         61:c1:18:b4:04:79:05:0e:b9:79:2f:0e:3f:aa:f1:36:e3:90:
         b9:c6:99:25:53:4a:06:64:52:92:29:c5:09:41:a6:16:74:1b:
         3c:4e:81:32:c2:d8:54:e0:1e:08:45:cf:f1:d0:ad:ea:11:1a:
         b5:cf:7c:98:8a:dd:c1:01:e4:d0:f5:8e:60:fa:7f:e7:74:2d:
         91:43:81:bd:95:92:41:66:84:8b:8c:70:d7:2f:d4:2f:37:82:
         8f:9a:ef:c0:7d:c5:56:56:92:7a:00:b6:30:65:37:4c:6c:7a:
         ba:cc:e2:dc:73:e9:f5:2c:3c:3e:31:67:ee:3d:b7:78:96:89:
         ba:be:4f:85:a2:a8:83:3e:53:20:f0:bf:29:50:dc:23:38:58:
         d8:33:f5:7b:4a:12:df:2b:34:4c:1c:f1:76:6b:86:95:74:43:
         29:f7:68:f0:ca:04:08:89:ac:97:7d:05:14:a0:ca:81:56:5c:
         dd:c3:56:a3:53:01:0a:01:5c:55:b4:39:10:1b:be:47:19:58:
         a1:f2:e6:0c:08:95:b0:35:4e:6c:81:6d:b9:cf:0e:5c:70:ff:
         f3:b4:a7:95:69:1a:58:b7:ac:cc:2c:79:47:7e:20:17:cc:36:
         be:2c:10:11:31:28:63:dd:6f:8d:8d:e9:11:ea:ca:fc:10:0a:
         e0:ae:53:db
-----BEGIN CERTIFICATE-----
MIIDQjCCAiqgAwIBAgIBATANBgkqhkiG9w0BAQUFADCBizEoMCYGA1UEAwwfVGVz
dCBSb290IENlcnRpZmljYXRlIEF1dGhvcml0eTELMAkGA1UECAwCQ0ExCzAJBgNV
BAYTAlVTMRwwGgYJKoZIhvcNAQkBFg1yb290QHRlc3QuY29tMQ0wCwYDVQQKDARU
ZXN0MRgwFgYDVQQLDA9UZXN0IERlcGFydG1lbnQwHhcNMTkwMTA3MTgyNTAxWhcN
MjQwMTA2MTgyNTAxWjCBgTERMA8GA1UEAwwIdGVzdC5jb20xCzAJBgNVBAgMAkNB
MQswCQYDVQQGEwJVUzEcMBoGCSqGSIb3DQEJARYNcm9vdEB0ZXN0LmNvbTENMAsG
A1UECgwEVGVzdDElMCMGA1UECwwcU3VidW5pdCBvZiBUZXN0IE9yZ2FuaXphdGlv
bjCBnzANBgkqhkiG9w0BAQEFAAOBjQAwgYkCgYEAynY1eZHoou7v9DV+KYV1kGVa
YPig2e9o0WF5adfie/FncWVQMU6a+G8n6QULDnaVJJvCv5Dla0X941Ss1WKQTjfe
j66W9rNX6624RBNdpzR2wSZJkWc+XlJowRx/kceeAeK+p6jrP0Rtx8WCS5fZP8BR
mRsg3xKj5rtmRW204QcCAwEAAaM9MDswCQYDVR0TBAIwADALBgNVHQ8EBAMCBeAw
IQYDVR0RBBowGIIIdGVzdC5jb22CDGFsdC50ZXN0LmNvbTANBgkqhkiG9w0BAQUF
AAOCAQEAYcEYtAR5BQ65eS8OP6rxNuOQucaZJVNKBmRSkinFCUGmFnQbPE6BMsLY
VOAeCEXP8dCt6hEatc98mIrdwQHk0PWOYPp/53QtkUOBvZWSQWaEi4xw1y/ULzeC
j5rvwH3FVlaSegC2MGU3TGx6uszi3HPp9Sw8PjFn7j23eJaJur5PhaKogz5TIPC/
KVDcIzhY2DP1e0oS3ys0TBzxdmuGlXRDKfdo8MoECImsl30FFKDKgVZc3cNWo1MB
CgFcVbQ5EBu+RxlYofLmDAiVsDVObIFtuc8OXHD/87SnlWkaWLeszCx5R34gF8w2
viwQETEoY91vjY3pEerK/BAK4K5T2w==
-----END CERTIFICATE-----
