Certificate:
    Data:
        Version: 3 (0x2)
        Serial Number:
            23:b8:c4:44:4c:c7:ce:46:a5:9b:da:29:a9:4a:98:a9:44:cb:9b:4e
        Signature Algorithm: sha256WithRSAEncryption
        Issuer: CN = Test Root Certificate Authority, ST = CA, C = US, emailAddress = root@test.com, O = Test, OU = Test Department
        Validity
            Not Before: May 14 22:12:05 2020 GMT
            Not After : May 13 22:12:05 2025 GMT
        Subject: C = US, ST = CA, O = Test, OU = Subunit of Test Organization, CN = test.com, emailAddress = root@test.com
        Subject Public Key Info:
            Public Key Algorithm: rsaEncryption
                RSA Public-Key: (2048 bit)
                Modulus:
                    00:c8:9f:ff:4d:a0:6e:9e:ab:6f:0f:5b:7a:67:b7:
                    2d:0b:eb:69:6b:9f:19:7a:6e:f5:b2:91:50:71:d4:
                    b4:42:84:b9:e0:8c:98:61:89:2d:90:c2:0d:68:d4:
                    ea:1c:6f:6d:d3:28:52:29:04:a1:4d:28:8e:38:35:
                    98:1b:5b:f3:c7:da:41:17:83:c8:d5:32:40:7e:90:
                    bc:69:88:29:96:93:b4:d1:45:65:ac:7c:88:4c:54:
                    dc:b0:b1:06:82:7e:0d:d3:a6:2d:50:e0:cd:6b:0b:
                    c3:74:c4:96:8c:af:87:34:d7:3b:d7:33:60:e3:16:
                    99:01:06:5e:93:77:8b:6a:c3:3f:ce:9f:e0:44:3c:
                    bc:b6:bc:e8:65:b3:72:94:ee:e4:99:6c:5f:a9:43:
                    e4:0a:8d:13:38:48:dd:08:9c:51:6d:d6:d3:6b:dc:
                    44:b1:10:0f:7d:87:97:fc:ab:41:e5:11:28:b2:9b:
                    e1:4b:8d:64:94:ee:3e:5f:b5:9a:03:ac:64:e1:b8:
                    3c:51:78:05:b9:98:f8:41:0b:36:7f:1e:76:a2:6a:
                    51:75:2d:e2:fa:0d:00:d2:b9:96:50:eb:ad:33:c3:
                    ab:8c:ce:49:09:82:7f:69:77:b7:38:70:90:e7:16:
                    9c:6b:f2:c0:7e:61:ab:c4:34:04:aa:38:dc:4a:00:
                    50:ed
                Exponent: 65537 (0x10001)
        X509v3 extensions:
            X509v3 Subject Alternative Name:
                DNS:test.com, DNS:alt.test.com
    Signature Algorithm: sha256WithRSAEncryption
         32:84:50:0b:5c:8d:ad:b5:e7:8c:98:57:44:7f:46:e9:52:1c:
         30:07:a0:17:82:37:0b:30:cc:60:46:41:fd:45:e5:98:a7:e1:
         f9:8f:b8:45:25:70:a2:71:a1:9a:2f:88:fe:2e:18:59:19:83:
         c1:bc:8e:c8:b6:e9:cc:c8:1c:8b:09:84:83:96:f6:a0:fc:04:
         76:6b:27:b7:70:e9:3d:6d:da:8c:de:84:bb:93:7d:c7:af:a4:
         e1:2f:46:13:82:1b:28:fa:8b:ff:f7:4b:48:d8:97:45:a2:c3:
         e4:68:2c:2b:23:bd:8d:42:a5:fe:d3:a4:5a:bd:97:4c:95:21:
         f4:14:30:62:c6:50:2b:fc:c8:68:3d:a1:04:f6:37:d7:85:67:
         79:79:00:30:46:96:3d:52:cd:16:96:b5:83:11:4d:05:65:99:
         80:8d:e4:af:a7:2c:44:18:4a:e6:6e:59:25:06:28:77:c2:bd:
         b7:d5:06:83:d5:29:80:4e:ab:a4:5b:79:30:98:15:b1:ba:16:
         49:17:18:f5:08:24:31:72:2d:23:9f:c7:15:e1:4a:2c:fc:6e:
         27:5b:ac:a0:70:6a:76:90:8d:8a:68:f2:a6:5a:c4:99:7b:01:
         4c:b8:d4:0f:23:87:b1:28:e5:64:55:81:c6:c4:b1:8e:78:1c:
         f8:45:cb:fa
-----BEGIN CERTIFICATE-----
MIIDwTCCAqmgAwIBAgIUI7jEREzHzkalm9opqUqYqUTLm04wDQYJKoZIhvcNAQEL
BQAwgYsxKDAmBgNVBAMMH1Rlc3QgUm9vdCBDZXJ0aWZpY2F0ZSBBdXRob3JpdHkx
CzAJBgNVBAgMAkNBMQswCQYDVQQGEwJVUzEcMBoGCSqGSIb3DQEJARYNcm9vdEB0
ZXN0LmNvbTENMAsGA1UECgwEVGVzdDEYMBYGA1UECwwPVGVzdCBEZXBhcnRtZW50
MB4XDTIwMDUxNDIyMTIwNVoXDTI1MDUxMzIyMTIwNVowgYExCzAJBgNVBAYTAlVT
MQswCQYDVQQIDAJDQTENMAsGA1UECgwEVGVzdDElMCMGA1UECwwcU3VidW5pdCBv
ZiBUZXN0IE9yZ2FuaXphdGlvbjERMA8GA1UEAwwIdGVzdC5jb20xHDAaBgkqhkiG
9w0BCQEWDXJvb3RAdGVzdC5jb20wggEiMA0GCSqGSIb3DQEBAQUAA4IBDwAwggEK
AoIBAQDIn/9NoG6eq28PW3pnty0L62lrnxl6bvWykVBx1LRChLngjJhhiS2Qwg1o
1Oocb23TKFIpBKFNKI44NZgbW/PH2kEXg8jVMkB+kLxpiCmWk7TRRWWsfIhMVNyw
sQaCfg3Tpi1Q4M1rC8N0xJaMr4c01zvXM2DjFpkBBl6Td4tqwz/On+BEPLy2vOhl
s3KU7uSZbF+pQ+QKjRM4SN0InFFt1tNr3ESxEA99h5f8q0HlESiym+FLjWSU7j5f
tZoDrGThuDxReAW5mPhBCzZ/HnaialF1LeL6DQDSuZZQ660zw6uMzkkJgn9pd7c4
cJDnFpxr8sB+YavENASqONxKAFDtAgMBAAGjJTAjMCEGA1UdEQQaMBiCCHRlc3Qu
Y29tggxhbHQudGVzdC5jb20wDQYJKoZIhvcNAQELBQADggEBADKEUAtcja2154yY
V0R/RulSHDAHoBeCNwswzGBGQf1F5Zin4fmPuEUlcKJxoZoviP4uGFkZg8G8jsi2
6czIHIsJhIOW9qD8BHZrJ7dw6T1t2ozehLuTfcevpOEvRhOCGyj6i//3S0jYl0Wi
w+RoLCsjvY1Cpf7TpFq9l0yVIfQUMGLGUCv8yGg9oQT2N9eFZ3l5ADBGlj1SzRaW
tYMRTQVlmYCN5K+nLEQYSuZuWSUGKHfCvbfVBoPVKYBOq6RbeTCYFbG6FkkXGPUI
JDFyLSOfxxXhSiz8bidbrKBwanaQjYpo8qZaxJl7AUy41A8jh7Eo5WRVgcbEsY54
HPhFy/o=
-----END CERTIFICATE-----
