Certificate:
    Data:
        Version: 1 (0x0)
        Serial Number:
            71:a5:f7:f3:8f:7e:0a:d7:79:ce:b6:eb:01:60:ac:00:c3:76:5a:a0
        Signature Algorithm: sha256WithRSAEncryption
        Issuer: CN = Test Root Certificate Authority, ST = CA, C = US, emailAddress = root@test.com, O = Test, OU = Test Department
        Validity
            Not Before: Apr 27 07:01:42 2020 GMT
            Not After : Apr 26 07:01:42 2025 GMT
        Subject: C = US, ST = CA, O = Test, OU = Subunit of Test Organization, CN = test.com, emailAddress = root@test.com
        Subject Public Key Info:
            Public Key Algorithm: rsaEncryption
                RSA Public-Key: (2048 bit)
                Modulus:
                    00:d6:cc:70:e1:24:a6:11:49:80:d2:44:4b:60:b7:
                    5b:7b:ff:ed:2a:ba:dd:e5:88:4d:d9:d1:5a:c0:24:
                    42:e7:40:ab:4d:cd:f1:b9:e3:8c:b6:93:2f:5a:e6:
                    eb:45:36:f3:5e:e2:8e:1a:5d:ba:fd:b5:f7:66:d7:
                    23:20:df:08:b5:70:45:43:01:03:47:7b:6e:2b:6c:
                    1b:d8:b6:20:be:7c:45:49:be:17:a1:00:68:a8:11:
                    f3:1f:15:c3:0e:39:6b:16:ee:05:36:0e:07:4d:c3:
                    28:f6:9b:9c:66:e2:b5:56:76:38:fd:12:db:41:fa:
                    e4:02:67:64:54:a4:7d:28:9f:37:4e:e2:12:19:7f:
                    79:14:17:e5:dd:c0:12:7c:33:52:ff:df:82:08:3b:
                    61:b5:c6:59:50:49:93:87:20:97:45:52:33:4b:95:
                    08:0c:6f:29:23:74:e3:dc:22:19:d4:b6:79:e6:1d:
                    4f:07:75:47:d9:25:ee:05:97:cc:78:84:b9:64:36:
                    9b:d2:b9:f9:2c:0f:40:e8:e9:16:cf:17:f5:3b:fb:
                    56:a5:80:1a:29:93:90:0b:d6:4c:9a:8f:8e:d9:dd:
                    9c:9d:06:da:a1:db:bc:44:14:b0:93:80:8c:3d:37:
                    e7:c3:4b:04:01:81:4b:f9:78:d0:b4:ed:51:78:24:
                    fd:cd
                Exponent: 65537 (0x10001)
    Signature Algorithm: sha256WithRSAEncryption
         14:1e:2a:7a:94:1d:c7:9a:69:c1:51:af:57:d0:b5:53:51:2f:
         bb:a5:a6:fa:28:c4:02:a9:74:83:b8:3e:ce:26:44:dd:e7:71:
         ef:3e:f6:20:91:da:f3:af:87:c4:c1:dc:6d:64:ee:64:86:98:
         07:45:8c:23:2e:b3:7a:ed:c4:dd:3a:5c:ab:20:ff:16:7d:66:
         53:45:7e:d5:ff:fb:dd:47:e6:25:a1:3c:97:27:db:04:f5:f4:
         de:bb:f2:18:ac:99:a6:b3:39:b4:c0:08:f9:53:6a:22:b5:64:
         8c:2a:81:8c:2a:4e:1c:45:ca:94:68:7a:c1:0f:5d:c2:09:37:
         f4:d5:5a:bf:63:62:dd:e1:e3:37:8f:2f:11:8d:e4:91:1b:43:
         d2:a1:ea:14:7b:f9:b1:4e:97:2f:7e:71:2a:0c:67:a4:46:89:
         93:19:04:d4:93:a5:b3:97:ea:54:0d:4d:f0:89:cd:a7:f2:96:
         84:4c:80:9e:66:c2:33:ec:3d:4d:25:5f:ce:10:f5:e5:7e:a3:
         b7:fe:02:5a:8e:c3:31:1a:55:a8:96:54:03:c4:f2:5b:55:63:
         d7:e6:db:96:a5:47:a2:80:88:52:25:04:c9:15:fa:ad:b8:dd:
         34:89:8d:af:96:36:08:56:c6:a7:66:f4:ee:b8:4a:75:af:30:
         54:0e:64:b4
-----BEGIN CERTIFICATE-----
MIIDlTCCAn0CFHGl9/OPfgrXec626wFgrADDdlqgMA0GCSqGSIb3DQEBCwUAMIGL
MSgwJgYDVQQDDB9UZXN0IFJvb3QgQ2VydGlmaWNhdGUgQXV0aG9yaXR5MQswCQYD
VQQIDAJDQTELMAkGA1UEBhMCVVMxHDAaBgkqhkiG9w0BCQEWDXJvb3RAdGVzdC5j
b20xDTALBgNVBAoMBFRlc3QxGDAWBgNVBAsMD1Rlc3QgRGVwYXJ0bWVudDAeFw0y
MDA0MjcwNzAxNDJaFw0yNTA0MjYwNzAxNDJaMIGBMQswCQYDVQQGEwJVUzELMAkG
A1UECAwCQ0ExDTALBgNVBAoMBFRlc3QxJTAjBgNVBAsMHFN1YnVuaXQgb2YgVGVz
dCBPcmdhbml6YXRpb24xETAPBgNVBAMMCHRlc3QuY29tMRwwGgYJKoZIhvcNAQkB
Fg1yb290QHRlc3QuY29tMIIBIjANBgkqhkiG9w0BAQEFAAOCAQ8AMIIBCgKCAQEA
1sxw4SSmEUmA0kRLYLdbe//tKrrd5YhN2dFawCRC50CrTc3xueOMtpMvWubrRTbz
XuKOGl26/bX3ZtcjIN8ItXBFQwEDR3tuK2wb2LYgvnxFSb4XoQBoqBHzHxXDDjlr
Fu4FNg4HTcMo9pucZuK1VnY4/RLbQfrkAmdkVKR9KJ83TuISGX95FBfl3cASfDNS
/9+CCDthtcZZUEmThyCXRVIzS5UIDG8pI3Tj3CIZ1LZ55h1PB3VH2SXuBZfMeIS5
ZDab0rn5LA9A6OkWzxf1O/tWpYAaKZOQC9ZMmo+O2d2cnQbaodu8RBSwk4CMPTfn
w0sEAYFL+XjQtO1ReCT9zQIDAQABMA0GCSqGSIb3DQEBCwUAA4IBAQAUHip6lB3H
mmnBUa9X0LVTUS+7pab6KMQCqXSDuD7OJkTd53HvPvYgkdrzr4fEwdxtZO5khpgH
RYwjLrN67cTdOlyrIP8WfWZTRX7V//vdR+YloTyXJ9sE9fTeu/IYrJmmszm0wAj5
U2oitWSMKoGMKk4cRcqUaHrBD13CCTf01Vq/Y2Ld4eM3jy8RjeSRG0PSoeoUe/mx
TpcvfnEqDGekRomTGQTUk6Wzl+pUDU3wic2n8paETICeZsIz7D1NJV/OEPXlfqO3
/gJajsMxGlWollQDxPJbVWPX5tuWpUeigIhSJQTJFfqtuN00iY2vljYIVsanZvTu
uEp1rzBUDmS0
-----END CERTIFICATE-----
