Certificate:
    Data:
        Version: 3 (0x2)
        Serial Number:
            78:f7:9b:75:a7:9d:83:12:a5:c7:a0:b6:af:87:da:c3:d9:32:c2:d6
        Signature Algorithm: sha256WithRSAEncryption
        Issuer: CN = Test Root Certificate Authority, ST = CA, C = US, emailAddress = root@test.com, O = Test, OU = Test Department
        Validity
            Not Before: Oct 27 03:09:35 2020 GMT
            Not After : Jun 28 03:09:35 2520 GMT
        Subject: C = US, ST = CA, O = Test, OU = Subunit of Test Organization, CN = test.com, emailAddress = root@test.com
        Subject Public Key Info:
            Public Key Algorithm: rsaEncryption
                RSA Public-Key: (2048 bit)
                Modulus:
                    00:c8:9f:ff:4d:a0:6e:9e:ab:6f:0f:5b:7a:67:b7:
                    2d:0b:eb:69:6b:9f:19:7a:6e:f5:b2:91:50:71:d4:
                    b4:42:84:b9:e0:8c:98:61:89:2d:90:c2:0d:68:d4:
                    ea:1c:6f:6d:d3:28:52:29:04:a1:4d:28:8e:38:35:
                    98:1b:5b:f3:c7:da:41:17:83:c8:d5:32:40:7e:90:
                    bc:69:88:29:96:93:b4:d1:45:65:ac:7c:88:4c:54:
                    dc:b0:b1:06:82:7e:0d:d3:a6:2d:50:e0:cd:6b:0b:
                    c3:74:c4:96:8c:af:87:34:d7:3b:d7:33:60:e3:16:
                    99:01:06:5e:93:77:8b:6a:c3:3f:ce:9f:e0:44:3c:
                    bc:b6:bc:e8:65:b3:72:94:ee:e4:99:6c:5f:a9:43:
                    e4:0a:8d:13:38:48:dd:08:9c:51:6d:d6:d3:6b:dc:
                    44:b1:10:0f:7d:87:97:fc:ab:41:e5:11:28:b2:9b:
                    e1:4b:8d:64:94:ee:3e:5f:b5:9a:03:ac:64:e1:b8:
                    3c:51:78:05:b9:98:f8:41:0b:36:7f:1e:76:a2:6a:
                    51:75:2d:e2:fa:0d:00:d2:b9:96:50:eb:ad:33:c3:
                    ab:8c:ce:49:09:82:7f:69:77:b7:38:70:90:e7:16:
                    9c:6b:f2:c0:7e:61:ab:c4:34:04:aa:38:dc:4a:00:
                    50:ed
                Exponent: 65537 (0x10001)
        X509v3 extensions:
            X509v3 Subject Alternative Name:
                DNS:test.com, DNS:alt.test.com
    Signature Algorithm: sha256WithRSAEncryption
         0f:ac:cb:a5:b2:13:63:3a:e7:f4:59:a6:ec:ad:ef:2e:61:5d:
         16:23:df:fb:a4:24:75:60:d4:fe:5a:d6:ed:f9:a7:a4:9d:49:
         e0:1e:c6:e6:10:8d:d2:de:90:54:d4:c6:a8:e9:99:7b:62:c4:
         b5:86:9f:19:96:cb:96:93:79:47:81:48:bf:32:20:45:6f:00:
         02:76:3f:1f:d5:3a:0b:ac:9e:b7:13:14:6f:b6:27:ad:34:d5:
         fa:82:5c:c6:1a:b4:4f:36:7b:e6:03:6d:4f:85:ce:43:42:d3:
         d3:7d:b4:7e:d1:dc:3b:27:31:94:d4:0a:08:ba:67:ec:e0:75:
         63:4a:48:b0:01:c7:90:2d:da:2e:c9:ef:c7:8a:20:76:75:89:
         b5:cf:dc:a3:00:07:c0:26:73:89:00:63:ce:cf:7b:6e:95:c9:
         5b:5a:d9:2a:0c:d5:96:61:9e:dd:b5:db:88:61:45:df:29:c1:
         de:34:e6:fa:25:23:2c:4e:71:c9:ba:d1:53:f9:38:28:6b:5a:
         47:a4:db:91:2d:54:3f:35:e4:a6:b6:1d:d1:7b:f9:c8:1a:35:
         71:1d:7d:94:2e:53:22:d8:e1:ca:93:fa:e5:c4:48:cd:ee:29:
         4a:65:71:2c:9a:ff:98:6f:48:25:2c:1a:90:14:4f:37:6e:e6:
         87:1e:f8:f4
-----BEGIN CERTIFICATE-----
MIIDwzCCAqugAwIBAgIUePebdaedgxKlx6C2r4faw9kywtYwDQYJKoZIhvcNAQEL
BQAwgYsxKDAmBgNVBAMMH1Rlc3QgUm9vdCBDZXJ0aWZpY2F0ZSBBdXRob3JpdHkx
CzAJBgNVBAgMAkNBMQswCQYDVQQGEwJVUzEcMBoGCSqGSIb3DQEJARYNcm9vdEB0
ZXN0LmNvbTENMAsGA1UECgwEVGVzdDEYMBYGA1UECwwPVGVzdCBEZXBhcnRtZW50
MCAXDTIwMTAyNzAzMDkzNVoYDzI1MjAwNjI4MDMwOTM1WjCBgTELMAkGA1UEBhMC
VVMxCzAJBgNVBAgMAkNBMQ0wCwYDVQQKDARUZXN0MSUwIwYDVQQLDBxTdWJ1bml0
IG9mIFRlc3QgT3JnYW5pemF0aW9uMREwDwYDVQQDDAh0ZXN0LmNvbTEcMBoGCSqG
SIb3DQEJARYNcm9vdEB0ZXN0LmNvbTCCASIwDQYJKoZIhvcNAQEBBQADggEPADCC
AQoCggEBAMif/02gbp6rbw9beme3LQvraWufGXpu9bKRUHHUtEKEueCMmGGJLZDC
DWjU6hxvbdMoUikEoU0ojjg1mBtb88faQReDyNUyQH6QvGmIKZaTtNFFZax8iExU
3LCxBoJ+DdOmLVDgzWsLw3TEloyvhzTXO9czYOMWmQEGXpN3i2rDP86f4EQ8vLa8
6GWzcpTu5JlsX6lD5AqNEzhI3QicUW3W02vcRLEQD32Hl/yrQeURKLKb4UuNZJTu
Pl+1mgOsZOG4PFF4BbmY+EELNn8edqJqUXUt4voNANK5llDrrTPDq4zOSQmCf2l3
tzhwkOcWnGvywH5hq8Q0BKo43EoAUO0CAwEAAaMlMCMwIQYDVR0RBBowGIIIdGVz
dC5jb22CDGFsdC50ZXN0LmNvbTANBgkqhkiG9w0BAQsFAAOCAQEAD6zLpbITYzrn
9Fmm7K3vLmFdFiPf+6QkdWDU/lrW7fmnpJ1J4B7G5hCN0t6QVNTGqOmZe2LEtYaf
GZbLlpN5R4FIvzIgRW8AAnY/H9U6C6yetxMUb7YnrTTV+oJcxhq0TzZ75gNtT4XO
Q0LT0320ftHcOycxlNQKCLpn7OB1Y0pIsAHHkC3aLsnvx4ogdnWJtc/cowAHwCZz
iQBjzs97bpXJW1rZKgzVlmGe3bXbiGFF3ynB3jTm+iUjLE5xybrRU/k4KGtaR6Tb
kS1UPzXkprYd0Xv5yBo1cR19lC5TItjhypP65cRIze4pSmVxLJr/mG9IJSwakBRP
N27mhx749A==
-----END CERTIFICATE-----
